; Function Attrs: mustprogress uwtable
define hidden void @_ZN4cvc58internal15NodeDfsIteratorppEi(ptr dead_on_unwind noalias nonnull writable sret(%"class.cvc5::internal::NodeDfsIterator") align 8 %0, ptr noundef nonnull align 8 dereferenceable(128) %1, i32 noundef %2) local_unnamed_addr #3 align 2 personality ptr @__gxx_personality_v0 {
  tail call void @_ZN4cvc58internal15NodeDfsIteratorC2ERKS1_(ptr noundef nonnull align 8 dereferenceable(128) %0, ptr noundef nonnull align 8 dereferenceable(128) %1)
  %4 = getelementptr inbounds nuw i8, ptr %1, i64 88
  %5 = load ptr, ptr %4, align 8, !tbaa !3
  %6 = load atomic i8, ptr @_ZGVZN4cvc58internal4expr9NodeValue4nullEvE6s_null acquire, align 8
  %7 = icmp eq i8 %6, 0
  br i1 %7, label %8, label %_ZNK4cvc58internal12NodeTemplateILb0EE6isNullEv.exit.i.i, !prof !33

8:                                                ; preds = %3
  %9 = tail call i32 @__cxa_guard_acquire(ptr nonnull @_ZGVZN4cvc58internal4expr9NodeValue4nullEvE6s_null) #20
  %.not.i.i.i.i = icmp eq i32 %9, 0
  br i1 %.not.i.i.i.i, label %_ZNK4cvc58internal12NodeTemplateILb0EE6isNullEv.exit.i.i, label %10

10:                                               ; preds = %8
  %11 = invoke noalias noundef nonnull dereferenceable(24) ptr @_Znwm(i64 noundef 24) #19
          to label %12 unwind label %14

12:                                               ; preds = %10
  store i64 1152920405095219200, ptr %11, align 8
  %13 = getelementptr inbounds nuw i8, ptr %11, i64 8
  tail call void @llvm.memset.p0.i64(ptr noundef nonnull align 8 dereferenceable(16) %13, i8 0, i64 16, i1 false)
  store ptr %11, ptr @_ZZN4cvc58internal4expr9NodeValue4nullEvE6s_null, align 8, !tbaa !34
  tail call void @__cxa_guard_release(ptr nonnull @_ZGVZN4cvc58internal4expr9NodeValue4nullEvE6s_null) #20
  br label %_ZNK4cvc58internal12NodeTemplateILb0EE6isNullEv.exit.i.i

14:                                               ; preds = %10
  %15 = landingpad { ptr, i32 }
          cleanup
  tail call void @__cxa_guard_abort(ptr nonnull @_ZGVZN4cvc58internal4expr9NodeValue4nullEvE6s_null) #20
  br label %.body

_ZNK4cvc58internal12NodeTemplateILb0EE6isNullEv.exit.i.i: ; preds = %12, %8, %3
  %16 = load ptr, ptr @_ZZN4cvc58internal4expr9NodeValue4nullEvE6s_null, align 8, !tbaa !34
  %17 = icmp eq ptr %5, %16
  br i1 %17, label %18, label %_ZN4cvc58internal15NodeDfsIterator25initializeIfUninitializedEv.exit.i

18:                                               ; preds = %_ZNK4cvc58internal12NodeTemplateILb0EE6isNullEv.exit.i.i
  invoke void @_ZN4cvc58internal15NodeDfsIterator18advanceToNextVisitEv(ptr noundef nonnull align 8 dereferenceable(128) %1)
          to label %_ZN4cvc58internal15NodeDfsIterator25initializeIfUninitializedEv.exit.i unwind label %19

_ZN4cvc58internal15NodeDfsIterator25initializeIfUninitializedEv.exit.i: ; preds = %18, %_ZNK4cvc58internal12NodeTemplateILb0EE6isNullEv.exit.i.i
  invoke void @_ZN4cvc58internal15NodeDfsIterator18advanceToNextVisitEv(ptr noundef nonnull align 8 dereferenceable(128) %1)
          to label %_ZN4cvc58internal15NodeDfsIteratorppEv.exit unwind label %19

19:                                               ; preds = %_ZN4cvc58internal15NodeDfsIterator25initializeIfUninitializedEv.exit.i, %18
  %20 = landingpad { ptr, i32 }
          cleanup
  br label %.body

.body:                                            ; preds = %14, %19
  %eh.lpad-body = phi { ptr, i32 } [ %20, %19 ], [ %15, %14 ]
  tail call void @_ZN4cvc58internal15NodeDfsIteratorD2Ev(ptr noundef nonnull align 8 dereferenceable(128) %0) #20
  resume { ptr, i32 } %eh.lpad-body

_ZN4cvc58internal15NodeDfsIteratorppEv.exit:      ; preds = %_ZN4cvc58internal15NodeDfsIterator25initializeIfUninitializedEv.exit.i
  ret void
}